; Function Attrs: inlinehint nofree nounwind uwtable
define internal fastcc void @Vec_IntPrint(ptr noundef readonly captures(none) %0) unnamed_addr #10 {
  %2 = getelementptr i8, ptr %0, i64 4
  %.val6 = load i32, ptr %2, align 4, !tbaa !16
  %3 = tail call i32 (ptr, ...) @printf(ptr noundef nonnull dereferenceable(1) @.str.23, i32 noundef %.val6)
  %.val8 = load i32, ptr %2, align 4, !tbaa !16
  %4 = icmp sgt i32 %.val8, 0
  br i1 %4, label %.lr.ph, label %.critedge

.lr.ph:                                           ; preds = %1
  %5 = getelementptr i8, ptr %0, i64 8
  br label %6

6:                                                ; preds = %.lr.ph, %6
  %indvars.iv = phi i64 [ 0, %.lr.ph ], [ %indvars.iv.next, %6 ]
  %.val7 = load ptr, ptr %5, align 8, !tbaa !25
  %7 = getelementptr inbounds nuw i32, ptr %.val7, i64 %indvars.iv
  %8 = load i32, ptr %7, align 4, !tbaa !3
  %9 = tail call i32 (ptr, ...) @printf(ptr noundef nonnull dereferenceable(1) @.str.18, i32 noundef %8)
  %indvars.iv.next = add nuw nsw i64 %indvars.iv, 1
  %.val = load i32, ptr %2, align 4, !tbaa !16
  %10 = sext i32 %.val to i64
  %11 = icmp slt i64 %indvars.iv.next, %10
  br i1 %11, label %6, label %.critedge, !llvm.loop !52

.critedge:                                        ; preds = %6, %1
  %puts = tail call i32 @puts(ptr nonnull dereferenceable(1) @str.3)
  ret void
}